; Listing generated by Microsoft (R) Optimizing Compiler Version 19.50.35725.0 

include listing.inc

INCLUDELIB OLDNAMES

PUBLIC	??_C@_1EA@PHBOJNAA@?$AAM?$AAi?$AAc?$AAr?$AAo?$AAs?$AAo?$AAf?$AAt?$AA?4?$AAW?$AAi?$AAn?$AAd?$AAo@ ; `string'
EXTRN	__imp_LoadLibraryExW:PROC
EXTRN	__imp_DebugBreak:PROC
EXTRN	__imp_exit:PROC
;	COMDAT ??_C@_1EA@PHBOJNAA@?$AAM?$AAi?$AAc?$AAr?$AAo?$AAs?$AAo?$AAf?$AAt?$AA?4?$AAW?$AAi?$AAn?$AAd?$AAo@
CONST	SEGMENT
??_C@_1EA@PHBOJNAA@?$AAM?$AAi?$AAc?$AAr?$AAo?$AAs?$AAo?$AAf?$AAt?$AA?4?$AAW?$AAi?$AAn?$AAd?$AAo@ DB 'M'
	DB	00H, 'i', 00H, 'c', 00H, 'r', 00H, 'o', 00H, 's', 00H, 'o', 00H
	DB	'f', 00H, 't', 00H, '.', 00H, 'W', 00H, 'i', 00H, 'n', 00H, 'd'
	DB	00H, 'o', 00H, 'w', 00H, 's', 00H, 'A', 00H, 'p', 00H, 'p', 00H
	DB	'R', 00H, 'u', 00H, 'n', 00H, 't', 00H, 'i', 00H, 'm', 00H, 'e'
	DB	00H, '.', 00H, 'd', 00H, 'l', 00H, 'l', 00H, 00H, 00H ; `string'
CONST	ENDS
PUBLIC	??0AutoInitialize@UndockedRegFreeWinRT@Foundation@Windows@Microsoft@@QEAA@XZ ; Microsoft::Windows::Foundation::UndockedRegFreeWinRT::AutoInitialize::AutoInitialize
PUBLIC	HRESULT_FROM_WIN32
PUBLIC	?dll@?1???0AutoInitialize@UndockedRegFreeWinRT@Foundation@Windows@Microsoft@@QEAA@XZ@4PEAUHINSTANCE__@@EA ; `Microsoft::Windows::Foundation::UndockedRegFreeWinRT::AutoInitialize::AutoInitialize'::`2'::dll
PUBLIC	?$TSS0@?1???0AutoInitialize@UndockedRegFreeWinRT@Foundation@Windows@Microsoft@@QEAA@XZ@4HA ; `Microsoft::Windows::Foundation::UndockedRegFreeWinRT::AutoInitialize::AutoInitialize'::`2'::$TSS0
;	COMDAT ?dll@?1???0AutoInitialize@UndockedRegFreeWinRT@Foundation@Windows@Microsoft@@QEAA@XZ@4PEAUHINSTANCE__@@EA
_BSS	SEGMENT
?dll@?1???0AutoInitialize@UndockedRegFreeWinRT@Foundation@Windows@Microsoft@@QEAA@XZ@4PEAUHINSTANCE__@@EA DQ 01H DUP (?) ; `Microsoft::Windows::Foundation::UndockedRegFreeWinRT::AutoInitialize::AutoInitialize'::`2'::dll
_BSS	ENDS
;	COMDAT ?$TSS0@?1???0AutoInitialize@UndockedRegFreeWinRT@Foundation@Windows@Microsoft@@QEAA@XZ@4HA
_BSS	SEGMENT
?$TSS0@?1???0AutoInitialize@UndockedRegFreeWinRT@Foundation@Windows@Microsoft@@QEAA@XZ@4HA DD 01H DUP (?) ; `Microsoft::Windows::Foundation::UndockedRegFreeWinRT::AutoInitialize::AutoInitialize'::`2'::$TSS0
?g_autoInitialize@UndockedRegFreeWinRT@Foundation@Windows@Microsoft@@3UAutoInitialize@1234@A DB 01H DUP (?) ; Microsoft::Windows::Foundation::UndockedRegFreeWinRT::g_autoInitialize
_BSS	ENDS
;	COMDAT pdata
pdata	SEGMENT
$pdata$??__Eg_autoInitialize@UndockedRegFreeWinRT@Foundation@Windows@Microsoft@@YAXXZ DD imagerel ??__Eg_autoInitialize@UndockedRegFreeWinRT@Foundation@Windows@Microsoft@@YAXXZ
	DD	imagerel ??__Eg_autoInitialize@UndockedRegFreeWinRT@Foundation@Windows@Microsoft@@YAXXZ+100
	DD	imagerel $unwind$??__Eg_autoInitialize@UndockedRegFreeWinRT@Foundation@Windows@Microsoft@@YAXXZ
pdata	ENDS
;	COMDAT pdata
pdata	SEGMENT
$pdata$0$??__Eg_autoInitialize@UndockedRegFreeWinRT@Foundation@Windows@Microsoft@@YAXXZ DD imagerel ??__Eg_autoInitialize@UndockedRegFreeWinRT@Foundation@Windows@Microsoft@@YAXXZ+100
	DD	imagerel ??__Eg_autoInitialize@UndockedRegFreeWinRT@Foundation@Windows@Microsoft@@YAXXZ+145
	DD	imagerel $chain$0$??__Eg_autoInitialize@UndockedRegFreeWinRT@Foundation@Windows@Microsoft@@YAXXZ
pdata	ENDS
;	COMDAT pdata
pdata	SEGMENT
$pdata$1$??__Eg_autoInitialize@UndockedRegFreeWinRT@Foundation@Windows@Microsoft@@YAXXZ DD imagerel ??__Eg_autoInitialize@UndockedRegFreeWinRT@Foundation@Windows@Microsoft@@YAXXZ+145
	DD	imagerel ??__Eg_autoInitialize@UndockedRegFreeWinRT@Foundation@Windows@Microsoft@@YAXXZ+150
	DD	imagerel $chain$1$??__Eg_autoInitialize@UndockedRegFreeWinRT@Foundation@Windows@Microsoft@@YAXXZ
pdata	ENDS
;	COMDAT pdata
pdata	SEGMENT
$pdata$??0AutoInitialize@UndockedRegFreeWinRT@Foundation@Windows@Microsoft@@QEAA@XZ DD imagerel $LN15
	DD	imagerel $LN15+100
	DD	imagerel $unwind$??0AutoInitialize@UndockedRegFreeWinRT@Foundation@Windows@Microsoft@@QEAA@XZ
pdata	ENDS
;	COMDAT pdata
pdata	SEGMENT
$pdata$0$??0AutoInitialize@UndockedRegFreeWinRT@Foundation@Windows@Microsoft@@QEAA@XZ DD imagerel $LN15+100
	DD	imagerel $LN15+145
	DD	imagerel $chain$0$??0AutoInitialize@UndockedRegFreeWinRT@Foundation@Windows@Microsoft@@QEAA@XZ
pdata	ENDS
;	COMDAT pdata
pdata	SEGMENT
$pdata$1$??0AutoInitialize@UndockedRegFreeWinRT@Foundation@Windows@Microsoft@@QEAA@XZ DD imagerel $LN15+145
	DD	imagerel $LN15+157
	DD	imagerel $chain$1$??0AutoInitialize@UndockedRegFreeWinRT@Foundation@Windows@Microsoft@@QEAA@XZ
pdata	ENDS
CRT$XCU	SEGMENT
?g_autoInitialize$initializer$@UndockedRegFreeWinRT@Foundation@Windows@Microsoft@@3P6AXXZEA DQ FLAT:??__Eg_autoInitialize@UndockedRegFreeWinRT@Foundation@Windows@Microsoft@@YAXXZ ; Microsoft::Windows::Foundation::UndockedRegFreeWinRT::g_autoInitialize$initializer$
CRT$XCU	ENDS
;	COMDAT xdata
xdata	SEGMENT
$chain$1$??0AutoInitialize@UndockedRegFreeWinRT@Foundation@Windows@Microsoft@@QEAA@XZ DD 021H
	DD	imagerel $LN15
	DD	imagerel $LN15+100
	DD	imagerel $unwind$??0AutoInitialize@UndockedRegFreeWinRT@Foundation@Windows@Microsoft@@QEAA@XZ
xdata	ENDS
;	COMDAT xdata
xdata	SEGMENT
$chain$0$??0AutoInitialize@UndockedRegFreeWinRT@Foundation@Windows@Microsoft@@QEAA@XZ DD 020521H
	DD	043405H
	DD	imagerel $LN15
	DD	imagerel $LN15+100
	DD	imagerel $unwind$??0AutoInitialize@UndockedRegFreeWinRT@Foundation@Windows@Microsoft@@QEAA@XZ
xdata	ENDS
;	COMDAT xdata
xdata	SEGMENT
$unwind$??0AutoInitialize@UndockedRegFreeWinRT@Foundation@Windows@Microsoft@@QEAA@XZ DD 010401H
	DD	04204H
xdata	ENDS
;	COMDAT xdata
xdata	SEGMENT
$chain$1$??__Eg_autoInitialize@UndockedRegFreeWinRT@Foundation@Windows@Microsoft@@YAXXZ DD 021H
	DD	imagerel ??__Eg_autoInitialize@UndockedRegFreeWinRT@Foundation@Windows@Microsoft@@YAXXZ
	DD	imagerel ??__Eg_autoInitialize@UndockedRegFreeWinRT@Foundation@Windows@Microsoft@@YAXXZ+100
	DD	imagerel $unwind$??__Eg_autoInitialize@UndockedRegFreeWinRT@Foundation@Windows@Microsoft@@YAXXZ
xdata	ENDS
;	COMDAT xdata
xdata	SEGMENT
$chain$0$??__Eg_autoInitialize@UndockedRegFreeWinRT@Foundation@Windows@Microsoft@@YAXXZ DD 020521H
	DD	043405H
	DD	imagerel ??__Eg_autoInitialize@UndockedRegFreeWinRT@Foundation@Windows@Microsoft@@YAXXZ
	DD	imagerel ??__Eg_autoInitialize@UndockedRegFreeWinRT@Foundation@Windows@Microsoft@@YAXXZ+100
	DD	imagerel $unwind$??__Eg_autoInitialize@UndockedRegFreeWinRT@Foundation@Windows@Microsoft@@YAXXZ
xdata	ENDS
;	COMDAT xdata
xdata	SEGMENT
$unwind$??__Eg_autoInitialize@UndockedRegFreeWinRT@Foundation@Windows@Microsoft@@YAXXZ DD 010401H
	DD	04204H
xdata	ENDS
; Function compile flags: /Ogtp
;	COMDAT HRESULT_FROM_WIN32
_TEXT	SEGMENT
x$ = 8
HRESULT_FROM_WIN32 PROC					; COMDAT
; File C:\Program Files (x86)\Windows Kits\10\Include\10.0.26100.0\shared\winerror.h
; Line 30347
	test	ecx, ecx
	jg	SHORT $LN3@HRESULT_FR
	mov	eax, ecx
	ret	0
$LN3@HRESULT_FR:
	movzx	eax, cx
	or	eax, -2147024896			; ffffffff80070000H
	ret	0
HRESULT_FROM_WIN32 ENDP
_TEXT	ENDS
; Function compile flags: /Ogtp
;	COMDAT ??0AutoInitialize@UndockedRegFreeWinRT@Foundation@Windows@Microsoft@@QEAA@XZ
_TEXT	SEGMENT
this$dead$ = 48
??0AutoInitialize@UndockedRegFreeWinRT@Foundation@Windows@Microsoft@@QEAA@XZ PROC ; Microsoft::Windows::Foundation::UndockedRegFreeWinRT::AutoInitialize::AutoInitialize, COMDAT
; File C:\Users\lilian.pigassou\OneDrive - Dashperf\Documents\GitHub\WinCamStream\Win\Native\WcsNativeWinUI\packages\Microsoft.WindowsAppSDK.1.5.240227000\include\UndockedRegFreeWinRT-AutoInitializer.cpp
; Line 17
$LN15:
	sub	rsp, 40					; 00000028H
; Line 29
	mov	rax, QWORD PTR gs:88
	mov	edx, OFFSET FLAT:_Init_thread_epoch
	mov	rcx, QWORD PTR [rax]
	mov	eax, DWORD PTR [rdx+rcx]
	cmp	DWORD PTR ?$TSS0@?1???0AutoInitialize@UndockedRegFreeWinRT@Foundation@Windows@Microsoft@@QEAA@XZ@4HA, eax ; `Microsoft::Windows::Foundation::UndockedRegFreeWinRT::AutoInitialize::AutoInitialize'::`2'::$TSS0
	jle	SHORT $LN2@AutoInitia
	lea	rcx, OFFSET FLAT:?$TSS0@?1???0AutoInitialize@UndockedRegFreeWinRT@Foundation@Windows@Microsoft@@QEAA@XZ@4HA ; `Microsoft::Windows::Foundation::UndockedRegFreeWinRT::AutoInitialize::AutoInitialize'::`2'::$TSS0
	call	_Init_thread_header
	cmp	DWORD PTR ?$TSS0@?1???0AutoInitialize@UndockedRegFreeWinRT@Foundation@Windows@Microsoft@@QEAA@XZ@4HA, -1 ; `Microsoft::Windows::Foundation::UndockedRegFreeWinRT::AutoInitialize::AutoInitialize'::`2'::$TSS0
	jne	SHORT $LN2@AutoInitia
	xor	r8d, r8d
	lea	rcx, OFFSET FLAT:??_C@_1EA@PHBOJNAA@?$AAM?$AAi?$AAc?$AAr?$AAo?$AAs?$AAo?$AAf?$AAt?$AA?4?$AAW?$AAi?$AAn?$AAd?$AAo@
	xor	edx, edx
	call	QWORD PTR __imp_LoadLibraryExW
	lea	rcx, OFFSET FLAT:?$TSS0@?1???0AutoInitialize@UndockedRegFreeWinRT@Foundation@Windows@Microsoft@@QEAA@XZ@4HA ; `Microsoft::Windows::Foundation::UndockedRegFreeWinRT::AutoInitialize::AutoInitialize'::`2'::$TSS0
	mov	QWORD PTR ?dll@?1???0AutoInitialize@UndockedRegFreeWinRT@Foundation@Windows@Microsoft@@QEAA@XZ@4PEAUHINSTANCE__@@EA, rax ; `Microsoft::Windows::Foundation::UndockedRegFreeWinRT::AutoInitialize::AutoInitialize'::`2'::dll
	call	_Init_thread_footer
$LN2@AutoInitia:
; Line 30
	cmp	QWORD PTR ?dll@?1???0AutoInitialize@UndockedRegFreeWinRT@Foundation@Windows@Microsoft@@QEAA@XZ@4PEAUHINSTANCE__@@EA, 0 ; `Microsoft::Windows::Foundation::UndockedRegFreeWinRT::AutoInitialize::AutoInitialize'::`2'::dll
	jne	SHORT $LN3@AutoInitia
	mov	QWORD PTR [rsp+32], rbx
; Line 32
	call	QWORD PTR __imp_GetLastError
	mov	ebx, eax
; Line 33
	call	QWORD PTR __imp_DebugBreak
; File C:\Program Files (x86)\Windows Kits\10\Include\10.0.26100.0\shared\winerror.h
; Line 30347
	test	ebx, ebx
	jle	SHORT $LN8@AutoInitia
	movzx	ebx, bx
	or	ebx, -2147024896			; ffffffff80070000H
$LN8@AutoInitia:
; File C:\Users\lilian.pigassou\OneDrive - Dashperf\Documents\GitHub\WinCamStream\Win\Native\WcsNativeWinUI\packages\Microsoft.WindowsAppSDK.1.5.240227000\include\UndockedRegFreeWinRT-AutoInitializer.cpp
; Line 34
	mov	ecx, ebx
	call	QWORD PTR __imp_exit
	mov	rbx, QWORD PTR [rsp+32]
$LN3@AutoInitia:
; Line 39
	lea	rax, OFFSET FLAT:?g_autoInitialize@UndockedRegFreeWinRT@Foundation@Windows@Microsoft@@3UAutoInitialize@1234@A
	add	rsp, 40					; 00000028H
	ret	0
$LN13@AutoInitia:
??0AutoInitialize@UndockedRegFreeWinRT@Foundation@Windows@Microsoft@@QEAA@XZ ENDP ; Microsoft::Windows::Foundation::UndockedRegFreeWinRT::AutoInitialize::AutoInitialize
_TEXT	ENDS
; Function compile flags: /Ogtp
;	COMDAT ??__Eg_autoInitialize@UndockedRegFreeWinRT@Foundation@Windows@Microsoft@@YAXXZ
text$di	SEGMENT
??__Eg_autoInitialize@UndockedRegFreeWinRT@Foundation@Windows@Microsoft@@YAXXZ PROC ; Microsoft::Windows::Foundation::UndockedRegFreeWinRT::`dynamic initializer for 'g_autoInitialize'', COMDAT
; File C:\Users\lilian.pigassou\OneDrive - Dashperf\Documents\GitHub\WinCamStream\Win\Native\WcsNativeWinUI\packages\Microsoft.WindowsAppSDK.1.5.240227000\include\UndockedRegFreeWinRT-AutoInitializer.cpp
; Line 41
	sub	rsp, 40					; 00000028H
; Line 29
	mov	rax, QWORD PTR gs:88
	mov	edx, OFFSET FLAT:_Init_thread_epoch
	mov	rcx, QWORD PTR [rax]
	mov	eax, DWORD PTR [rdx+rcx]
	cmp	DWORD PTR ?$TSS0@?1???0AutoInitialize@UndockedRegFreeWinRT@Foundation@Windows@Microsoft@@QEAA@XZ@4HA, eax ; `Microsoft::Windows::Foundation::UndockedRegFreeWinRT::AutoInitialize::AutoInitialize'::`2'::$TSS0
	jle	SHORT $LN4@dynamic
	lea	rcx, OFFSET FLAT:?$TSS0@?1???0AutoInitialize@UndockedRegFreeWinRT@Foundation@Windows@Microsoft@@QEAA@XZ@4HA ; `Microsoft::Windows::Foundation::UndockedRegFreeWinRT::AutoInitialize::AutoInitialize'::`2'::$TSS0
	call	_Init_thread_header
	cmp	DWORD PTR ?$TSS0@?1???0AutoInitialize@UndockedRegFreeWinRT@Foundation@Windows@Microsoft@@QEAA@XZ@4HA, -1 ; `Microsoft::Windows::Foundation::UndockedRegFreeWinRT::AutoInitialize::AutoInitialize'::`2'::$TSS0
	jne	SHORT $LN4@dynamic
	xor	r8d, r8d
	lea	rcx, OFFSET FLAT:??_C@_1EA@PHBOJNAA@?$AAM?$AAi?$AAc?$AAr?$AAo?$AAs?$AAo?$AAf?$AAt?$AA?4?$AAW?$AAi?$AAn?$AAd?$AAo@
	xor	edx, edx
	call	QWORD PTR __imp_LoadLibraryExW
	lea	rcx, OFFSET FLAT:?$TSS0@?1???0AutoInitialize@UndockedRegFreeWinRT@Foundation@Windows@Microsoft@@QEAA@XZ@4HA ; `Microsoft::Windows::Foundation::UndockedRegFreeWinRT::AutoInitialize::AutoInitialize'::`2'::$TSS0
	mov	QWORD PTR ?dll@?1???0AutoInitialize@UndockedRegFreeWinRT@Foundation@Windows@Microsoft@@QEAA@XZ@4PEAUHINSTANCE__@@EA, rax ; `Microsoft::Windows::Foundation::UndockedRegFreeWinRT::AutoInitialize::AutoInitialize'::`2'::dll
	call	_Init_thread_footer
$LN4@dynamic:
; Line 30
	cmp	QWORD PTR ?dll@?1???0AutoInitialize@UndockedRegFreeWinRT@Foundation@Windows@Microsoft@@QEAA@XZ@4PEAUHINSTANCE__@@EA, 0 ; `Microsoft::Windows::Foundation::UndockedRegFreeWinRT::AutoInitialize::AutoInitialize'::`2'::dll
	jne	SHORT $LN5@dynamic
	mov	QWORD PTR [rsp+32], rbx
; Line 32
	call	QWORD PTR __imp_GetLastError
	mov	ebx, eax
; Line 33
	call	QWORD PTR __imp_DebugBreak
; File C:\Program Files (x86)\Windows Kits\10\Include\10.0.26100.0\shared\winerror.h
; Line 30347
	test	ebx, ebx
	jle	SHORT $LN10@dynamic
	movzx	ebx, bx
	or	ebx, -2147024896			; ffffffff80070000H
$LN10@dynamic:
; File C:\Users\lilian.pigassou\OneDrive - Dashperf\Documents\GitHub\WinCamStream\Win\Native\WcsNativeWinUI\packages\Microsoft.WindowsAppSDK.1.5.240227000\include\UndockedRegFreeWinRT-AutoInitializer.cpp
; Line 34
	mov	ecx, ebx
	call	QWORD PTR __imp_exit
	mov	rbx, QWORD PTR [rsp+32]
$LN5@dynamic:
; Line 41
	add	rsp, 40					; 00000028H
	ret	0
$LN16@dynamic:
??__Eg_autoInitialize@UndockedRegFreeWinRT@Foundation@Windows@Microsoft@@YAXXZ ENDP ; Microsoft::Windows::Foundation::UndockedRegFreeWinRT::`dynamic initializer for 'g_autoInitialize''
text$di	ENDS
END
